; Function Attrs: nounwind uwtable
define noalias nonnull ptr @l_StateT_instMonadExceptOf___rarg(ptr noundef %0, ptr readnone captures(none) %1, ptr noundef %2) #0 {
  %4 = ptrtoint ptr %2 to i64
  %5 = and i64 %4, 1
  %.not = icmp eq i64 %5, 0
  br i1 %.not, label %6, label %lean_inc.exit

6:                                                ; preds = %3
  %.val.i = load i32, ptr %2, align 4, !tbaa !4
  %7 = icmp sgt i32 %.val.i, 0
  br i1 %7, label %8, label %10, !prof !13

8:                                                ; preds = %6
  %9 = add nuw i32 %.val.i, 1
  store i32 %9, ptr %2, align 4, !tbaa !4
  br label %lean_inc.exit

10:                                               ; preds = %6
  %.not.i = icmp eq i32 %.val.i, 0
  br i1 %.not.i, label %lean_inc.exit, label %11

11:                                               ; preds = %10
  tail call void @lean_inc_ref_cold(ptr noundef nonnull %2) #3
  br label %lean_inc.exit

lean_inc.exit:                                    ; preds = %11, %10, %8, %3
  tail call void @lean_inc_heartbeat() #3
  %12 = tail call noalias ptr @mi_malloc_small(i64 noundef 40) #3
  %13 = icmp eq ptr %12, null
  br i1 %13, label %14, label %lean_alloc_closure.exit

14:                                               ; preds = %lean_inc.exit
  tail call void @lean_internal_panic_out_of_memory() #4
  unreachable

lean_alloc_closure.exit:                          ; preds = %lean_inc.exit
  %15 = getelementptr inbounds nuw i8, ptr %12, i64 4
  store i32 1, ptr %12, align 4, !tbaa !4
  store i32 -184549336, ptr %15, align 4
  %16 = getelementptr inbounds nuw i8, ptr %12, i64 8
  store ptr @l_StateT_instMonadExceptOf___rarg___lambda__1, ptr %16, align 8, !tbaa !9
  %17 = getelementptr inbounds nuw i8, ptr %12, i64 16
  store i16 5, ptr %17, align 8, !tbaa !11
  %18 = getelementptr inbounds nuw i8, ptr %12, i64 18
  store i16 2, ptr %18, align 2, !tbaa !11
  %19 = getelementptr inbounds nuw i8, ptr %12, i64 24
  store ptr %2, ptr %19, align 8, !tbaa !9
  %20 = getelementptr inbounds nuw i8, ptr %12, i64 32
  store ptr %0, ptr %20, align 8, !tbaa !9
  tail call void @lean_inc_heartbeat() #3
  %21 = tail call noalias ptr @mi_malloc_small(i64 noundef 32) #3
  %22 = icmp eq ptr %21, null
  br i1 %22, label %23, label %lean_alloc_closure.exit12

23:                                               ; preds = %lean_alloc_closure.exit
  tail call void @lean_internal_panic_out_of_memory() #4
  unreachable

lean_alloc_closure.exit12:                        ; preds = %lean_alloc_closure.exit
  %24 = getelementptr inbounds nuw i8, ptr %21, i64 4
  store i32 1, ptr %21, align 4, !tbaa !4
  store i32 -184549344, ptr %24, align 4
  %25 = getelementptr inbounds nuw i8, ptr %21, i64 8
  store ptr @l_StateT_instMonadExceptOf___rarg___lambda__3, ptr %25, align 8, !tbaa !9
  %26 = getelementptr inbounds nuw i8, ptr %21, i64 16
  store i16 5, ptr %26, align 8, !tbaa !11
  %27 = getelementptr inbounds nuw i8, ptr %21, i64 18
  store i16 1, ptr %27, align 2, !tbaa !11
  %28 = getelementptr inbounds nuw i8, ptr %21, i64 24
  store ptr %2, ptr %28, align 8, !tbaa !9
  tail call void @lean_inc_heartbeat() #3
  %29 = tail call noalias ptr @mi_malloc_small(i64 noundef 24) #3
  %30 = icmp eq ptr %29, null
  br i1 %30, label %31, label %lean_alloc_ctor.exit

31:                                               ; preds = %lean_alloc_closure.exit12
  tail call void @lean_internal_panic_out_of_memory() #4
  unreachable

lean_alloc_ctor.exit:                             ; preds = %lean_alloc_closure.exit12
  %32 = getelementptr inbounds nuw i8, ptr %29, i64 4
  store i32 1, ptr %29, align 4, !tbaa !4
  store i32 131096, ptr %32, align 4
  %33 = getelementptr inbounds nuw i8, ptr %29, i64 8
  store ptr %12, ptr %33, align 8, !tbaa !9
  %34 = getelementptr inbounds nuw i8, ptr %29, i64 16
  store ptr %21, ptr %34, align 8, !tbaa !9
  ret ptr %29
}